; Function Attrs: nounwind uwtable
define dso_local void @uv__run_timers(ptr noundef readonly captures(none) %0) local_unnamed_addr #5 {
  %2 = getelementptr inbounds nuw i8, ptr %0, i64 520
  %.val9 = load ptr, ptr %2, align 8
  %3 = icmp eq ptr %.val9, null
  br i1 %3, label %._crit_edge, label %.lr.ph

.lr.ph:                                           ; preds = %1
  %4 = getelementptr inbounds nuw i8, ptr %0, i64 544
  br label %5

5:                                                ; preds = %.lr.ph, %uv_timer_again.exit
  %.val10 = phi ptr [ %.val9, %.lr.ph ], [ %.val, %uv_timer_again.exit ]
  %6 = getelementptr inbounds nuw i8, ptr %.val10, i64 24
  %7 = load i64, ptr %6, align 8
  %8 = load i64, ptr %4, align 8
  %9 = icmp ugt i64 %7, %8
  br i1 %9, label %._crit_edge, label %10

10:                                               ; preds = %5
  %11 = getelementptr inbounds i8, ptr %.val10, i64 -104
  %12 = tail call i32 @uv_timer_stop(ptr noundef nonnull %11)
  %13 = getelementptr inbounds i8, ptr %.val10, i64 -8
  %14 = getelementptr inbounds nuw i8, ptr %.val10, i64 32
  %15 = load i64, ptr %14, align 8
  %.not.i = icmp eq i64 %15, 0
  br i1 %.not.i, label %uv_timer_again.exit, label %16

16:                                               ; preds = %10
  %17 = tail call i32 @uv_timer_stop(ptr noundef nonnull %11)
  %18 = load ptr, ptr %13, align 8
  %19 = load i64, ptr %14, align 8
  %20 = tail call i32 @uv_timer_start(ptr noundef nonnull %11, ptr noundef %18, i64 noundef %19, i64 noundef %19)
  br label %uv_timer_again.exit

uv_timer_again.exit:                              ; preds = %10, %16
  %21 = load ptr, ptr %13, align 8
  tail call void %21(ptr noundef nonnull %11) #10
  %.val = load ptr, ptr %2, align 8
  %22 = icmp eq ptr %.val, null
  br i1 %22, label %._crit_edge, label %5

._crit_edge:                                      ; preds = %uv_timer_again.exit, %5, %1
  ret void
}